#include <math.h>
#include <stdio.h>
#include <stdlib.h>
#include <string.h>


int main()
{
	int n,s=0,i,k,a[100000],b[100000];
	scanf("%d",&n);
	for(i=0;i<n;i++)
	scanf("%d",&a[i]);
	scanf("%d",&k);
	for(i=0;i<n;i++)
	{
		if(a[i]==k)
		{
			b[i]=0;
		}
		else
		{
			b[i]=1;
			s=s+1;
		}
	}
	for(i=0;i<n;i++)
	{
		if(b[i]==1)
		{
			if(s==1)
		    {
				printf("%d",a[i]);
			}
			else
			{
				printf("%d ",a[i]);
				s=s-1;
			}
		}
	}
	return 0;
}
